target datalayout = "e-m:e-p270:32:32-p271:32:32-p272:64:64-i64:64-i128:128-f80:128-n8:16:32:64-S128"
target triple = "x86_64-pc-linux-gnu"

%struct.AVRational = type { i32, i32 }
%struct.AVPacket = type { ptr, i64, i64, ptr, i32, i32, i32, ptr, i32, i64, i64, ptr, ptr, %struct.AVRational }
%struct.AVPacketSideData = type { ptr, i64, i32 }
%struct.AVProducerReferenceTime = type { i64, i32 }

; Function Attrs: nounwind uwtable
define ptr @av_packet_get_side_data(ptr noundef %0, i32 noundef %1, ptr noundef %2) #0 {
  %4 = alloca ptr, align 8
  %5 = alloca ptr, align 8
  %6 = alloca i32, align 4
  %7 = alloca ptr, align 8
  %8 = alloca i32, align 4
  %9 = alloca i32, align 4
  store ptr %0, ptr %5, align 8, !tbaa !4
  store i32 %1, ptr %6, align 4, !tbaa !28
  store ptr %2, ptr %7, align 8, !tbaa !53
  call void @llvm.lifetime.start.p0(i64 4, ptr %8) #9
  store i32 0, ptr %8, align 4, !tbaa !28
  br label %10

10:                                               ; preds = %50, %3
  %11 = load i32, ptr %8, align 4, !tbaa !28
  %12 = load ptr, ptr %5, align 8, !tbaa !4
  %13 = getelementptr inbounds nuw %struct.AVPacket, ptr %12, i32 0, i32 8
  %14 = load i32, ptr %13, align 8, !tbaa !24
  %15 = icmp slt i32 %11, %14
  br i1 %15, label %16, label %53

16:                                               ; preds = %10
  %17 = load ptr, ptr %5, align 8, !tbaa !4
  %18 = getelementptr inbounds nuw %struct.AVPacket, ptr %17, i32 0, i32 7
  %19 = load ptr, ptr %18, align 8, !tbaa !23
  %20 = load i32, ptr %8, align 4, !tbaa !28
  %21 = sext i32 %20 to i64
  %22 = getelementptr inbounds %struct.AVPacketSideData, ptr %19, i64 %21
  %23 = getelementptr inbounds nuw %struct.AVPacketSideData, ptr %22, i32 0, i32 2
  %24 = load i32, ptr %23, align 8, !tbaa !48
  %25 = load i32, ptr %6, align 4, !tbaa !28
  %26 = icmp eq i32 %24, %25
  br i1 %26, label %27, label %49

27:                                               ; preds = %16
  %28 = load ptr, ptr %7, align 8, !tbaa !53
  %29 = icmp ne ptr %28, null
  br i1 %29, label %30, label %40

30:                                               ; preds = %27
  %31 = load ptr, ptr %5, align 8, !tbaa !4
  %32 = getelementptr inbounds nuw %struct.AVPacket, ptr %31, i32 0, i32 7
  %33 = load ptr, ptr %32, align 8, !tbaa !23
  %34 = load i32, ptr %8, align 4, !tbaa !28
  %35 = sext i32 %34 to i64
  %36 = getelementptr inbounds %struct.AVPacketSideData, ptr %33, i64 %35
  %37 = getelementptr inbounds nuw %struct.AVPacketSideData, ptr %36, i32 0, i32 1
  %38 = load i64, ptr %37, align 8, !tbaa !51
  %39 = load ptr, ptr %7, align 8, !tbaa !53
  store i64 %38, ptr %39, align 8, !tbaa !43
  br label %40

40:                                               ; preds = %30, %27
  %41 = load ptr, ptr %5, align 8, !tbaa !4
  %42 = getelementptr inbounds nuw %struct.AVPacket, ptr %41, i32 0, i32 7
  %43 = load ptr, ptr %42, align 8, !tbaa !23
  %44 = load i32, ptr %8, align 4, !tbaa !28
  %45 = sext i32 %44 to i64
  %46 = getelementptr inbounds %struct.AVPacketSideData, ptr %43, i64 %45
  %47 = getelementptr inbounds nuw %struct.AVPacketSideData, ptr %46, i32 0, i32 0
  %48 = load ptr, ptr %47, align 8, !tbaa !50
  store ptr %48, ptr %4, align 8
  store i32 1, ptr %9, align 4
  br label %59

49:                                               ; preds = %16
  br label %50

50:                                               ; preds = %49
  %51 = load i32, ptr %8, align 4, !tbaa !28
  %52 = add nsw i32 %51, 1
  store i32 %52, ptr %8, align 4, !tbaa !28
  br label %10, !llvm.loop !55

53:                                               ; preds = %10
  %54 = load ptr, ptr %7, align 8, !tbaa !53
  %55 = icmp ne ptr %54, null
  br i1 %55, label %56, label %58

56:                                               ; preds = %53
  %57 = load ptr, ptr %7, align 8, !tbaa !53
  store i64 0, ptr %57, align 8, !tbaa !43
  br label %58

58:                                               ; preds = %56, %53
  store ptr null, ptr %4, align 8
  store i32 1, ptr %9, align 4
  br label %59

59:                                               ; preds = %58, %40
  call void @llvm.lifetime.end.p0(i64 4, ptr %8) #9
  %60 = load ptr, ptr %4, align 8
  ret ptr %60
}

; Function Attrs: nounwind uwtable
define i32 @ff_side_data_set_prft(ptr noundef %0, i64 noundef %1) #0 {
  %3 = alloca i32, align 4
  %4 = alloca ptr, align 8
  %5 = alloca i64, align 8
  %6 = alloca ptr, align 8
  %7 = alloca ptr, align 8
  %8 = alloca i64, align 8
  %9 = alloca i32, align 4
  store ptr %0, ptr %4, align 8, !tbaa !4
  store i64 %1, ptr %5, align 8, !tbaa !43
  call void @llvm.lifetime.start.p0(i64 8, ptr %6) #9
  call void @llvm.lifetime.start.p0(i64 8, ptr %7) #9
  call void @llvm.lifetime.start.p0(i64 8, ptr %8) #9
  %10 = load ptr, ptr %4, align 8, !tbaa !4
  %11 = call ptr @av_packet_get_side_data(ptr noundef %10, i32 noundef 27, ptr noundef %8)
  store ptr %11, ptr %7, align 8, !tbaa !42
  %12 = load ptr, ptr %7, align 8, !tbaa !42
  %13 = icmp ne ptr %12, null
  br i1 %13, label %18, label %14

14:                                               ; preds = %2
  store i64 16, ptr %8, align 8, !tbaa !43
  %15 = load ptr, ptr %4, align 8, !tbaa !4
  %16 = load i64, ptr %8, align 8, !tbaa !43
  %17 = call ptr @av_packet_new_side_data(ptr noundef %15, i32 noundef 27, i64 noundef %16)
  store ptr %17, ptr %7, align 8, !tbaa !42
  br label %18

18:                                               ; preds = %14, %2
  %19 = load ptr, ptr %7, align 8, !tbaa !42
  %20 = icmp ne ptr %19, null
  br i1 %20, label %21, label %24

21:                                               ; preds = %18
  %22 = load i64, ptr %8, align 8, !tbaa !43
  %23 = icmp ult i64 %22, 16
  br i1 %23, label %24, label %25

24:                                               ; preds = %21, %18
  store i32 -12, ptr %3, align 4
  store i32 1, ptr %9, align 4
  br label %32

25:                                               ; preds = %21
  %26 = load ptr, ptr %7, align 8, !tbaa !42
  store ptr %26, ptr %6, align 8, !tbaa !85
  %27 = load i64, ptr %5, align 8, !tbaa !43
  %28 = load ptr, ptr %6, align 8, !tbaa !85
  %29 = getelementptr inbounds nuw %struct.AVProducerReferenceTime, ptr %28, i32 0, i32 0
  store i64 %27, ptr %29, align 8, !tbaa !87
  %30 = load ptr, ptr %6, align 8, !tbaa !85
  %31 = getelementptr inbounds nuw %struct.AVProducerReferenceTime, ptr %30, i32 0, i32 1
  store i32 0, ptr %31, align 8, !tbaa !89
  store i32 0, ptr %3, align 4
  store i32 1, ptr %9, align 4
  br label %32

32:                                               ; preds = %25, %24
  call void @llvm.lifetime.end.p0(i64 8, ptr %8) #9
  call void @llvm.lifetime.end.p0(i64 8, ptr %7) #9
  call void @llvm.lifetime.end.p0(i64 8, ptr %6) #9
  %33 = load i32, ptr %3, align 4
  ret i32 %33
}