; Function Attrs: nounwind uwtable
define range(i32 -12, 1) i32 @ff_side_data_set_prft(ptr noundef captures(none) %0, i64 noundef %1) local_unnamed_addr #3 {
  %3 = getelementptr inbounds nuw i8, ptr %0, i64 56
  %4 = load i32, ptr %3, align 8, !tbaa !22
  %5 = icmp sgt i32 %4, 0
  br i1 %5, label %.lr.ph.i, label %av_packet_get_side_data.exit.thread

.lr.ph.i:                                         ; preds = %2
  %6 = getelementptr inbounds nuw i8, ptr %0, i64 48
  %7 = load ptr, ptr %6, align 8, !tbaa !21
  %wide.trip.count.i = zext nneg i32 %4 to i64
  br label %9

8:                                                ; preds = %9
  %indvars.iv.next.i = add nuw nsw i64 %indvars.iv.i, 1
  %exitcond.not.i = icmp eq i64 %indvars.iv.next.i, %wide.trip.count.i
  br i1 %exitcond.not.i, label %av_packet_get_side_data.exit.thread, label %9, !llvm.loop !40

9:                                                ; preds = %8, %.lr.ph.i
  %indvars.iv.i = phi i64 [ 0, %.lr.ph.i ], [ %indvars.iv.next.i, %8 ]
  %10 = getelementptr inbounds nuw %struct.AVPacketSideData, ptr %7, i64 %indvars.iv.i
  %11 = getelementptr inbounds nuw i8, ptr %10, i64 16
  %12 = load i32, ptr %11, align 8, !tbaa !35
  %13 = icmp eq i32 %12, 27
  br i1 %13, label %av_packet_get_side_data.exit, label %8

av_packet_get_side_data.exit:                     ; preds = %9
  %14 = getelementptr inbounds nuw i8, ptr %10, i64 8
  %15 = load i64, ptr %14, align 8, !tbaa !38
  %16 = load ptr, ptr %10, align 8, !tbaa !37
  %.not = icmp eq ptr %16, null
  br i1 %.not, label %av_packet_get_side_data.exit.thread, label %18

av_packet_get_side_data.exit.thread:              ; preds = %8, %2, %av_packet_get_side_data.exit
  %17 = tail call ptr @av_packet_new_side_data(ptr noundef %0, i32 noundef 27, i64 noundef 16)
  br label %18

18:                                               ; preds = %av_packet_get_side_data.exit.thread, %av_packet_get_side_data.exit
  %.011 = phi i64 [ 16, %av_packet_get_side_data.exit.thread ], [ %15, %av_packet_get_side_data.exit ]
  %.0 = phi ptr [ %17, %av_packet_get_side_data.exit.thread ], [ %16, %av_packet_get_side_data.exit ]
  %19 = icmp eq ptr %.0, null
  %20 = icmp ult i64 %.011, 16
  %or.cond = select i1 %19, i1 true, i1 %20
  br i1 %or.cond, label %23, label %21

21:                                               ; preds = %18
  store i64 %1, ptr %.0, align 8, !tbaa !64
  %22 = getelementptr inbounds nuw i8, ptr %.0, i64 8
  store i32 0, ptr %22, align 8, !tbaa !66
  br label %23

23:                                               ; preds = %18, %21
  %.09 = phi i32 [ 0, %21 ], [ -12, %18 ]
  ret i32 %.09
}